target datalayout = "e-m:e-p270:32:32-p271:32:32-p272:64:64-i64:64-i128:128-f80:128-n8:16:32:64-S128"
target triple = "x86_64-pc-linux-gnu"

%struct.SparseMatrix_struct = type { i32, i32, i32, i32, i32, ptr, ptr, ptr, i32, i8, i64 }

; Function Attrs: nounwind uwtable
define ptr @SparseMatrix_divide_row_by_degree(ptr noundef %0) #0 {
  %2 = alloca ptr, align 8
  %3 = alloca ptr, align 8
  %4 = alloca i32, align 4
  %5 = alloca i32, align 4
  %6 = alloca ptr, align 8
  %7 = alloca ptr, align 8
  %8 = alloca double, align 8
  %9 = alloca i32, align 4
  %10 = alloca ptr, align 8
  %11 = alloca ptr, align 8
  store ptr %0, ptr %3, align 8, !tbaa !3
  call void @llvm.lifetime.start.p0(i64 4, ptr %4) #11
  call void @llvm.lifetime.start.p0(i64 4, ptr %5) #11
  call void @llvm.lifetime.start.p0(i64 8, ptr %6) #11
  call void @llvm.lifetime.start.p0(i64 8, ptr %7) #11
  call void @llvm.lifetime.start.p0(i64 8, ptr %8) #11
  %12 = load ptr, ptr %3, align 8, !tbaa !3
  %13 = icmp ne ptr %12, null
  br i1 %13, label %16, label %14

14:                                               ; preds = %1
  %15 = load ptr, ptr %3, align 8, !tbaa !3
  store ptr %15, ptr %2, align 8
  store i32 1, ptr %9, align 4
  br label %174

16:                                               ; preds = %1
  %17 = load ptr, ptr %3, align 8, !tbaa !3
  %18 = getelementptr inbounds nuw %struct.SparseMatrix_struct, ptr %17, i32 0, i32 5
  %19 = load ptr, ptr %18, align 8, !tbaa !8
  store ptr %19, ptr %6, align 8, !tbaa !14
  %20 = load ptr, ptr %3, align 8, !tbaa !3
  %21 = getelementptr inbounds nuw %struct.SparseMatrix_struct, ptr %20, i32 0, i32 6
  %22 = load ptr, ptr %21, align 8, !tbaa !15
  store ptr %22, ptr %7, align 8, !tbaa !14
  %23 = load ptr, ptr %3, align 8, !tbaa !3
  %24 = getelementptr inbounds nuw %struct.SparseMatrix_struct, ptr %23, i32 0, i32 4
  %25 = load i32, ptr %24, align 8, !tbaa !20
  switch i32 %25, label %171 [
    i32 1, label %26
    i32 2, label %84
    i32 4, label %168
    i32 8, label %169
    i32 16, label %170
  ]

26:                                               ; preds = %16
  call void @llvm.lifetime.start.p0(i64 8, ptr %10) #11
  %27 = load ptr, ptr %3, align 8, !tbaa !3
  %28 = getelementptr inbounds nuw %struct.SparseMatrix_struct, ptr %27, i32 0, i32 7
  %29 = load ptr, ptr %28, align 8, !tbaa !27
  store ptr %29, ptr %10, align 8, !tbaa !28
  store i32 0, ptr %4, align 4, !tbaa !17
  br label %30

30:                                               ; preds = %80, %26
  %31 = load i32, ptr %4, align 4, !tbaa !17
  %32 = load ptr, ptr %3, align 8, !tbaa !3
  %33 = getelementptr inbounds nuw %struct.SparseMatrix_struct, ptr %32, i32 0, i32 0
  %34 = load i32, ptr %33, align 8, !tbaa !18
  %35 = icmp slt i32 %31, %34
  br i1 %35, label %36, label %83

36:                                               ; preds = %30
  %37 = load ptr, ptr %6, align 8, !tbaa !14
  %38 = load i32, ptr %4, align 4, !tbaa !17
  %39 = add nsw i32 %38, 1
  %40 = sext i32 %39 to i64
  %41 = getelementptr inbounds i32, ptr %37, i64 %40
  %42 = load i32, ptr %41, align 4, !tbaa !17
  %43 = load ptr, ptr %6, align 8, !tbaa !14
  %44 = load i32, ptr %4, align 4, !tbaa !17
  %45 = sext i32 %44 to i64
  %46 = getelementptr inbounds i32, ptr %43, i64 %45
  %47 = load i32, ptr %46, align 4, !tbaa !17
  %48 = sub nsw i32 %42, %47
  %49 = sitofp i32 %48 to double
  store double %49, ptr %8, align 8, !tbaa !30
  %50 = load ptr, ptr %6, align 8, !tbaa !14
  %51 = load i32, ptr %4, align 4, !tbaa !17
  %52 = sext i32 %51 to i64
  %53 = getelementptr inbounds i32, ptr %50, i64 %52
  %54 = load i32, ptr %53, align 4, !tbaa !17
  store i32 %54, ptr %5, align 4, !tbaa !17
  br label %55

55:                                               ; preds = %76, %36
  %56 = load i32, ptr %5, align 4, !tbaa !17
  %57 = load ptr, ptr %6, align 8, !tbaa !14
  %58 = load i32, ptr %4, align 4, !tbaa !17
  %59 = add nsw i32 %58, 1
  %60 = sext i32 %59 to i64
  %61 = getelementptr inbounds i32, ptr %57, i64 %60
  %62 = load i32, ptr %61, align 4, !tbaa !17
  %63 = icmp slt i32 %56, %62
  br i1 %63, label %64, label %79

64:                                               ; preds = %55
  %65 = load ptr, ptr %10, align 8, !tbaa !28
  %66 = load i32, ptr %5, align 4, !tbaa !17
  %67 = sext i32 %66 to i64
  %68 = getelementptr inbounds double, ptr %65, i64 %67
  %69 = load double, ptr %68, align 8, !tbaa !30
  %70 = load double, ptr %8, align 8, !tbaa !30
  %71 = fdiv double %69, %70
  %72 = load ptr, ptr %10, align 8, !tbaa !28
  %73 = load i32, ptr %5, align 4, !tbaa !17
  %74 = sext i32 %73 to i64
  %75 = getelementptr inbounds double, ptr %72, i64 %74
  store double %71, ptr %75, align 8, !tbaa !30
  br label %76

76:                                               ; preds = %64
  %77 = load i32, ptr %5, align 4, !tbaa !17
  %78 = add nsw i32 %77, 1
  store i32 %78, ptr %5, align 4, !tbaa !17
  br label %55, !llvm.loop !178

79:                                               ; preds = %55
  br label %80

80:                                               ; preds = %79
  %81 = load i32, ptr %4, align 4, !tbaa !17
  %82 = add nsw i32 %81, 1
  store i32 %82, ptr %4, align 4, !tbaa !17
  br label %30, !llvm.loop !179

83:                                               ; preds = %30
  store i32 2, ptr %9, align 4
  call void @llvm.lifetime.end.p0(i64 8, ptr %10) #11
  br label %172

84:                                               ; preds = %16
  call void @llvm.lifetime.start.p0(i64 8, ptr %11) #11
  %85 = load ptr, ptr %3, align 8, !tbaa !3
  %86 = getelementptr inbounds nuw %struct.SparseMatrix_struct, ptr %85, i32 0, i32 7
  %87 = load ptr, ptr %86, align 8, !tbaa !27
  store ptr %87, ptr %11, align 8, !tbaa !28
  store i32 0, ptr %4, align 4, !tbaa !17
  br label %88

88:                                               ; preds = %164, %84
  %89 = load i32, ptr %4, align 4, !tbaa !17
  %90 = load ptr, ptr %3, align 8, !tbaa !3
  %91 = getelementptr inbounds nuw %struct.SparseMatrix_struct, ptr %90, i32 0, i32 0
  %92 = load i32, ptr %91, align 8, !tbaa !18
  %93 = icmp slt i32 %89, %92
  br i1 %93, label %94, label %167

94:                                               ; preds = %88
  %95 = load ptr, ptr %6, align 8, !tbaa !14
  %96 = load i32, ptr %4, align 4, !tbaa !17
  %97 = add nsw i32 %96, 1
  %98 = sext i32 %97 to i64
  %99 = getelementptr inbounds i32, ptr %95, i64 %98
  %100 = load i32, ptr %99, align 4, !tbaa !17
  %101 = load ptr, ptr %6, align 8, !tbaa !14
  %102 = load i32, ptr %4, align 4, !tbaa !17
  %103 = sext i32 %102 to i64
  %104 = getelementptr inbounds i32, ptr %101, i64 %103
  %105 = load i32, ptr %104, align 4, !tbaa !17
  %106 = sub nsw i32 %100, %105
  %107 = sitofp i32 %106 to double
  store double %107, ptr %8, align 8, !tbaa !30
  %108 = load ptr, ptr %6, align 8, !tbaa !14
  %109 = load i32, ptr %4, align 4, !tbaa !17
  %110 = sext i32 %109 to i64
  %111 = getelementptr inbounds i32, ptr %108, i64 %110
  %112 = load i32, ptr %111, align 4, !tbaa !17
  store i32 %112, ptr %5, align 4, !tbaa !17
  br label %113

113:                                              ; preds = %160, %94
  %114 = load i32, ptr %5, align 4, !tbaa !17
  %115 = load ptr, ptr %6, align 8, !tbaa !14
  %116 = load i32, ptr %4, align 4, !tbaa !17
  %117 = add nsw i32 %116, 1
  %118 = sext i32 %117 to i64
  %119 = getelementptr inbounds i32, ptr %115, i64 %118
  %120 = load i32, ptr %119, align 4, !tbaa !17
  %121 = icmp slt i32 %114, %120
  br i1 %121, label %122, label %163

122:                                              ; preds = %113
  %123 = load ptr, ptr %7, align 8, !tbaa !14
  %124 = load i32, ptr %5, align 4, !tbaa !17
  %125 = sext i32 %124 to i64
  %126 = getelementptr inbounds i32, ptr %123, i64 %125
  %127 = load i32, ptr %126, align 4, !tbaa !17
  %128 = load i32, ptr %4, align 4, !tbaa !17
  %129 = icmp ne i32 %127, %128
  br i1 %129, label %130, label %159

130:                                              ; preds = %122
  %131 = load ptr, ptr %11, align 8, !tbaa !28
  %132 = load i32, ptr %5, align 4, !tbaa !17
  %133 = mul nsw i32 2, %132
  %134 = sext i32 %133 to i64
  %135 = getelementptr inbounds double, ptr %131, i64 %134
  %136 = load double, ptr %135, align 8, !tbaa !30
  %137 = load double, ptr %8, align 8, !tbaa !30
  %138 = fdiv double %136, %137
  %139 = load ptr, ptr %11, align 8, !tbaa !28
  %140 = load i32, ptr %5, align 4, !tbaa !17
  %141 = mul nsw i32 2, %140
  %142 = sext i32 %141 to i64
  %143 = getelementptr inbounds double, ptr %139, i64 %142
  store double %138, ptr %143, align 8, !tbaa !30
  %144 = load ptr, ptr %11, align 8, !tbaa !28
  %145 = load i32, ptr %5, align 4, !tbaa !17
  %146 = mul nsw i32 2, %145
  %147 = add nsw i32 %146, 1
  %148 = sext i32 %147 to i64
  %149 = getelementptr inbounds double, ptr %144, i64 %148
  %150 = load double, ptr %149, align 8, !tbaa !30
  %151 = load double, ptr %8, align 8, !tbaa !30
  %152 = fdiv double %150, %151
  %153 = load ptr, ptr %11, align 8, !tbaa !28
  %154 = load i32, ptr %5, align 4, !tbaa !17
  %155 = mul nsw i32 2, %154
  %156 = add nsw i32 %155, 1
  %157 = sext i32 %156 to i64
  %158 = getelementptr inbounds double, ptr %153, i64 %157
  store double %152, ptr %158, align 8, !tbaa !30
  br label %159

159:                                              ; preds = %130, %122
  br label %160

160:                                              ; preds = %159
  %161 = load i32, ptr %5, align 4, !tbaa !17
  %162 = add nsw i32 %161, 1
  store i32 %162, ptr %5, align 4, !tbaa !17
  br label %113, !llvm.loop !180

163:                                              ; preds = %113
  br label %164

164:                                              ; preds = %163
  %165 = load i32, ptr %4, align 4, !tbaa !17
  %166 = add nsw i32 %165, 1
  store i32 %166, ptr %4, align 4, !tbaa !17
  br label %88, !llvm.loop !181

167:                                              ; preds = %88
  store i32 2, ptr %9, align 4
  call void @llvm.lifetime.end.p0(i64 8, ptr %11) #11
  br label %172

168:                                              ; preds = %16
  br label %172

169:                                              ; preds = %16
  br label %172

170:                                              ; preds = %16
  store ptr null, ptr %2, align 8
  store i32 1, ptr %9, align 4
  br label %174

171:                                              ; preds = %16
  store ptr null, ptr %2, align 8
  store i32 1, ptr %9, align 4
  br label %174

172:                                              ; preds = %169, %168, %167, %83
  %173 = load ptr, ptr %3, align 8, !tbaa !3
  store ptr %173, ptr %2, align 8
  store i32 1, ptr %9, align 4
  br label %174

174:                                              ; preds = %172, %171, %170, %14
  call void @llvm.lifetime.end.p0(i64 8, ptr %8) #11
  call void @llvm.lifetime.end.p0(i64 8, ptr %7) #11
  call void @llvm.lifetime.end.p0(i64 8, ptr %6) #11
  call void @llvm.lifetime.end.p0(i64 4, ptr %5) #11
  call void @llvm.lifetime.end.p0(i64 4, ptr %4) #11
  %175 = load ptr, ptr %2, align 8
  ret ptr %175
}