; Function Attrs: nofree norecurse nosync nounwind memory(readwrite, inaccessiblemem: none) uwtable
define noundef ptr @SparseMatrix_divide_row_by_degree(ptr noundef readonly captures(address_is_null, ret: address, provenance) %0) local_unnamed_addr #3 {
  %.not = icmp eq ptr %0, null
  br i1 %.not, label %49, label %2

2:                                                ; preds = %1
  %3 = getelementptr inbounds nuw i8, ptr %0, i64 24
  %4 = load ptr, ptr %3, align 8, !tbaa !3
  %5 = getelementptr inbounds nuw i8, ptr %0, i64 32
  %6 = load ptr, ptr %5, align 8, !tbaa !12
  %7 = getelementptr inbounds nuw i8, ptr %0, i64 16
  %8 = load i32, ptr %7, align 8, !tbaa !17
  switch i32 %8, label %49 [
    i32 1, label %9
    i32 2, label %24
    i32 4, label %.loopexit58
    i32 8, label %.loopexit58
  ]

9:                                                ; preds = %2
  %10 = getelementptr inbounds nuw i8, ptr %0, i64 40
  %11 = load ptr, ptr %10, align 8, !tbaa !13
  %12 = load i32, ptr %0, align 8, !tbaa !15
  %13 = icmp sgt i32 %12, 0
  br i1 %13, label %.lr.ph67.preheader, label %.loopexit58

.lr.ph67.preheader:                               ; preds = %9
  %wide.trip.count83 = zext nneg i32 %12 to i64
  %.pre85 = load i32, ptr %4, align 4, !tbaa !19
  br label %.lr.ph67

.loopexit:                                        ; preds = %.lr.ph65, %.lr.ph67
  %exitcond84.not = icmp eq i64 %indvars.iv.next81, %wide.trip.count83
  br i1 %exitcond84.not, label %.loopexit58, label %.lr.ph67, !llvm.loop !160

.lr.ph67:                                         ; preds = %.lr.ph67.preheader, %.loopexit
  %14 = phi i32 [ %.pre85, %.lr.ph67.preheader ], [ %16, %.loopexit ]
  %indvars.iv80 = phi i64 [ 0, %.lr.ph67.preheader ], [ %indvars.iv.next81, %.loopexit ]
  %indvars.iv.next81 = add nuw nsw i64 %indvars.iv80, 1
  %15 = getelementptr inbounds nuw i32, ptr %4, i64 %indvars.iv.next81
  %16 = load i32, ptr %15, align 4, !tbaa !19
  %17 = sub nsw i32 %16, %14
  %18 = sitofp i32 %17 to double
  %19 = icmp slt i32 %14, %16
  br i1 %19, label %.lr.ph65.preheader, label %.loopexit

.lr.ph65.preheader:                               ; preds = %.lr.ph67
  %20 = sext i32 %14 to i64
  %wide.trip.count78 = sext i32 %16 to i64
  br label %.lr.ph65

.lr.ph65:                                         ; preds = %.lr.ph65.preheader, %.lr.ph65
  %indvars.iv75 = phi i64 [ %20, %.lr.ph65.preheader ], [ %indvars.iv.next76, %.lr.ph65 ]
  %21 = getelementptr inbounds double, ptr %11, i64 %indvars.iv75
  %22 = load double, ptr %21, align 8, !tbaa !25
  %23 = fdiv double %22, %18
  store double %23, ptr %21, align 8, !tbaa !25
  %indvars.iv.next76 = add nsw i64 %indvars.iv75, 1
  %exitcond79.not = icmp eq i64 %indvars.iv.next76, %wide.trip.count78
  br i1 %exitcond79.not, label %.loopexit, label %.lr.ph65, !llvm.loop !161

24:                                               ; preds = %2
  %25 = getelementptr inbounds nuw i8, ptr %0, i64 40
  %26 = load ptr, ptr %25, align 8, !tbaa !13
  %27 = load i32, ptr %0, align 8, !tbaa !15
  %28 = icmp sgt i32 %27, 0
  br i1 %28, label %.lr.ph63.preheader, label %.loopexit58

.lr.ph63.preheader:                               ; preds = %24
  %wide.trip.count73 = zext nneg i32 %27 to i64
  %.pre = load i32, ptr %4, align 4, !tbaa !19
  br label %.lr.ph63

.loopexit59:                                      ; preds = %48, %.lr.ph63
  %exitcond74.not = icmp eq i64 %indvars.iv.next71, %wide.trip.count73
  br i1 %exitcond74.not, label %.loopexit58, label %.lr.ph63, !llvm.loop !162

.lr.ph63:                                         ; preds = %.lr.ph63.preheader, %.loopexit59
  %29 = phi i32 [ %.pre, %.lr.ph63.preheader ], [ %31, %.loopexit59 ]
  %indvars.iv70 = phi i64 [ 0, %.lr.ph63.preheader ], [ %indvars.iv.next71, %.loopexit59 ]
  %indvars.iv.next71 = add nuw nsw i64 %indvars.iv70, 1
  %30 = getelementptr inbounds nuw i32, ptr %4, i64 %indvars.iv.next71
  %31 = load i32, ptr %30, align 4, !tbaa !19
  %32 = sub nsw i32 %31, %29
  %33 = sitofp i32 %32 to double
  %34 = icmp slt i32 %29, %31
  br i1 %34, label %.lr.ph.preheader, label %.loopexit59

.lr.ph.preheader:                                 ; preds = %.lr.ph63
  %35 = sext i32 %29 to i64
  %wide.trip.count = sext i32 %31 to i64
  br label %.lr.ph

.lr.ph:                                           ; preds = %.lr.ph.preheader, %48
  %indvars.iv = phi i64 [ %35, %.lr.ph.preheader ], [ %indvars.iv.next, %48 ]
  %36 = getelementptr inbounds i32, ptr %6, i64 %indvars.iv
  %37 = load i32, ptr %36, align 4, !tbaa !19
  %38 = zext i32 %37 to i64
  %.not57 = icmp eq i64 %indvars.iv70, %38
  br i1 %.not57, label %48, label %39

39:                                               ; preds = %.lr.ph
  %40 = shl nsw i64 %indvars.iv, 1
  %41 = getelementptr inbounds double, ptr %26, i64 %40
  %42 = load double, ptr %41, align 8, !tbaa !25
  %43 = fdiv double %42, %33
  store double %43, ptr %41, align 8, !tbaa !25
  %44 = or disjoint i64 %40, 1
  %45 = getelementptr inbounds double, ptr %26, i64 %44
  %46 = load double, ptr %45, align 8, !tbaa !25
  %47 = fdiv double %46, %33
  store double %47, ptr %45, align 8, !tbaa !25
  br label %48

48:                                               ; preds = %.lr.ph, %39
  %indvars.iv.next = add nsw i64 %indvars.iv, 1
  %exitcond.not = icmp eq i64 %indvars.iv.next, %wide.trip.count
  br i1 %exitcond.not, label %.loopexit59, label %.lr.ph, !llvm.loop !163

.loopexit58:                                      ; preds = %.loopexit59, %.loopexit, %24, %9, %2, %2
  br label %49

49:                                               ; preds = %2, %1, %.loopexit58
  %.0 = phi ptr [ %0, %.loopexit58 ], [ null, %1 ], [ null, %2 ]
  ret ptr %.0
}